target datalayout = "e-m:e-p270:32:32-p271:32:32-p272:64:64-i64:64-i128:128-f80:128-n8:16:32:64-S128"
target triple = "x86_64-pc-linux-gnu"

%struct.psa_hash_operation_s = type { i32, %union.psa_driver_hash_context_t }
%union.psa_driver_hash_context_t = type { %struct.mbedtls_psa_hash_operation_t }
%struct.mbedtls_psa_hash_operation_t = type { i32, %union.anon.0 }
%union.anon.0 = type { %struct.mbedtls_sha512_context }
%struct.mbedtls_sha512_context = type { [2 x i64], [8 x i64], [128 x i8], i32 }

; Function Attrs: nounwind uwtable
define hidden i32 @psa_driver_wrapper_hash_setup(ptr noundef %0, i32 noundef %1) #0 {
  %3 = alloca i32, align 4
  %4 = alloca ptr, align 8
  %5 = alloca i32, align 4
  %6 = alloca i32, align 4
  store ptr %0, ptr %4, align 8
  store i32 %1, ptr %5, align 4
  store i32 -151, ptr %6, align 4
  %7 = load ptr, ptr %4, align 8
  %8 = getelementptr inbounds %struct.psa_hash_operation_s, ptr %7, i32 0, i32 1
  %9 = load i32, ptr %5, align 4
  %10 = call i32 @mbedtls_psa_hash_setup(ptr noundef %8, i32 noundef %9)
  store i32 %10, ptr %6, align 4
  %11 = load i32, ptr %6, align 4
  %12 = icmp eq i32 %11, 0
  br i1 %12, label %13, label %16

13:                                               ; preds = %2
  %14 = load ptr, ptr %4, align 8
  %15 = getelementptr inbounds %struct.psa_hash_operation_s, ptr %14, i32 0, i32 0
  store i32 1, ptr %15, align 8
  br label %16

16:                                               ; preds = %13, %2
  %17 = load i32, ptr %6, align 4
  %18 = icmp ne i32 %17, -134
  br i1 %18, label %19, label %21

19:                                               ; preds = %16
  %20 = load i32, ptr %6, align 4
  store i32 %20, ptr %3, align 4
  br label %22

21:                                               ; preds = %16
  store i32 -134, ptr %3, align 4
  br label %22

22:                                               ; preds = %21, %19
  %23 = load i32, ptr %3, align 4
  ret i32 %23
}