; Function Attrs: nounwind uwtable
define hidden i32 @psa_driver_wrapper_hash_setup(ptr noundef %0, i32 noundef %1) local_unnamed_addr #1 {
  %3 = getelementptr inbounds nuw i8, ptr %0, i64 8
  %4 = tail call i32 @mbedtls_psa_hash_setup(ptr noundef nonnull %3, i32 noundef %1) #5
  %cond = icmp eq i32 %4, 0
  br i1 %cond, label %5, label %6

5:                                                ; preds = %2
  store i32 1, ptr %0, align 8
  br label %6

6:                                                ; preds = %2, %5
  ret i32 %4
}